target datalayout = "e-m:e-p270:32:32-p271:32:32-p272:64:64-i64:64-i128:128-f80:128-n8:16:32:64-S128"
target triple = "x86_64-pc-linux-gnu"

%"class.ArgumentParser::Base" = type { %"class.ArgumentParser::ActionMap" }
%"class.ArgumentParser::ActionMap" = type { %"class.ArgumentParser::KeywordActionMap", %"class.std::function", %"class.std::function", %"class.ArgumentParser::PositionActionMap" }
%"class.ArgumentParser::KeywordActionMap" = type { %"class.std::vector" }
%"class.std::vector" = type { %"struct.std::_Vector_base" }
%"struct.std::_Vector_base" = type { %"struct.std::_Vector_base<std::pair<std::basic_string_view<char>, std::function<void (ArgumentParser::Instance &)>>, std::allocator<std::pair<std::basic_string_view<char>, std::function<void (ArgumentParser::Instance &)>>>>::_Vector_impl" }
%"struct.std::_Vector_base<std::pair<std::basic_string_view<char>, std::function<void (ArgumentParser::Instance &)>>, std::allocator<std::pair<std::basic_string_view<char>, std::function<void (ArgumentParser::Instance &)>>>>::_Vector_impl" = type { %"struct.std::_Vector_base<std::pair<std::basic_string_view<char>, std::function<void (ArgumentParser::Instance &)>>, std::allocator<std::pair<std::basic_string_view<char>, std::function<void (ArgumentParser::Instance &)>>>>::_Vector_impl_data" }
%"struct.std::_Vector_base<std::pair<std::basic_string_view<char>, std::function<void (ArgumentParser::Instance &)>>, std::allocator<std::pair<std::basic_string_view<char>, std::function<void (ArgumentParser::Instance &)>>>>::_Vector_impl_data" = type { ptr, ptr, ptr }
%"class.std::function" = type { %"class.std::_Function_base", ptr }
%"class.std::_Function_base" = type { %"union.std::_Any_data", ptr }
%"union.std::_Any_data" = type { %"union.std::_Nocopy_types" }
%"union.std::_Nocopy_types" = type { { i64, i64 } }
%"class.ArgumentParser::PositionActionMap" = type { %"class.std::vector.0" }
%"class.std::vector.0" = type { %"struct.std::_Vector_base.1" }
%"struct.std::_Vector_base.1" = type { %"struct.std::_Vector_base<std::pair<unsigned long, std::function<void (ArgumentParser::Instance &, unsigned long, std::basic_string_view<char>)>>, std::allocator<std::pair<unsigned long, std::function<void (ArgumentParser::Instance &, unsigned long, std::basic_string_view<char>)>>>>::_Vector_impl" }
%"struct.std::_Vector_base<std::pair<unsigned long, std::function<void (ArgumentParser::Instance &, unsigned long, std::basic_string_view<char>)>>, std::allocator<std::pair<unsigned long, std::function<void (ArgumentParser::Instance &, unsigned long, std::basic_string_view<char>)>>>>::_Vector_impl" = type { %"struct.std::_Vector_base<std::pair<unsigned long, std::function<void (ArgumentParser::Instance &, unsigned long, std::basic_string_view<char>)>>, std::allocator<std::pair<unsigned long, std::function<void (ArgumentParser::Instance &, unsigned long, std::basic_string_view<char>)>>>>::_Vector_impl_data" }
%"struct.std::_Vector_base<std::pair<unsigned long, std::function<void (ArgumentParser::Instance &, unsigned long, std::basic_string_view<char>)>>, std::allocator<std::pair<unsigned long, std::function<void (ArgumentParser::Instance &, unsigned long, std::basic_string_view<char>)>>>>::_Vector_impl_data" = type { ptr, ptr, ptr }
%"class.std::__cxx11::basic_string" = type { %"struct.std::__cxx11::basic_string<char>::_Alloc_hider", i64, %union.anon }
%"struct.std::__cxx11::basic_string<char>::_Alloc_hider" = type { ptr }
%union.anon = type { i64, [8 x i8] }
%"class.std::vector.15" = type { %"struct.std::_Vector_base.16" }
%"struct.std::_Vector_base.16" = type { %"struct.std::_Vector_base<std::__cxx11::basic_string<char>, std::allocator<std::__cxx11::basic_string<char>>>::_Vector_impl" }
%"struct.std::_Vector_base<std::__cxx11::basic_string<char>, std::allocator<std::__cxx11::basic_string<char>>>::_Vector_impl" = type { %"struct.std::_Vector_base<std::__cxx11::basic_string<char>, std::allocator<std::__cxx11::basic_string<char>>>::_Vector_impl_data" }
%"struct.std::_Vector_base<std::__cxx11::basic_string<char>, std::allocator<std::__cxx11::basic_string<char>>>::_Vector_impl_data" = type { ptr, ptr, ptr }
%"struct.ArgumentParser::MaybeEmpty" = type { %"class.std::vector.15" }
%class.cmInstallCommandArguments = type { %class.cmArgumentParser.371, %"class.std::__cxx11::basic_string", %"class.std::__cxx11::basic_string", %"class.std::__cxx11::basic_string", i8, %"class.std::__cxx11::basic_string", %"struct.ArgumentParser::MaybeEmpty", %"struct.ArgumentParser::MaybeEmpty", i8, i8, i8, %"class.std::__cxx11::basic_string", %"class.std::__cxx11::basic_string", %"class.std::__cxx11::basic_string", ptr, %"class.std::__cxx11::basic_string" }
%class.cmArgumentParser.371 = type { %"class.ArgumentParser::Base" }
%"class.std::vector.380" = type { %"struct.std::_Vector_base.381" }
%"struct.std::_Vector_base.381" = type { %"struct.std::_Vector_base<cmInstallCommandFileSetArguments, std::allocator<cmInstallCommandFileSetArguments>>::_Vector_impl" }
%"struct.std::_Vector_base<cmInstallCommandFileSetArguments, std::allocator<cmInstallCommandFileSetArguments>>::_Vector_impl" = type { %"struct.std::_Vector_base<cmInstallCommandFileSetArguments, std::allocator<cmInstallCommandFileSetArguments>>::_Vector_impl_data" }
%"struct.std::_Vector_base<cmInstallCommandFileSetArguments, std::allocator<cmInstallCommandFileSetArguments>>::_Vector_impl_data" = type { ptr, ptr, ptr }
%class.cmInstallCommandFileSetArguments = type { %class.cmInstallCommandArguments, %"class.std::__cxx11::basic_string" }
%class.anon.501 = type { %"class.std::vector.380" }

; Function Attrs: mustprogress nounwind uwtable
define linkonce_odr dso_local void @_ZN32cmInstallCommandFileSetArgumentsD2Ev(ptr noundef nonnull align 8 dereferenceable(472) %0) unnamed_addr #5 comdat align 2 {
  %2 = alloca ptr, align 8
  store ptr %0, ptr %2, align 8
  %3 = load ptr, ptr %2, align 8
  %4 = getelementptr inbounds %class.cmInstallCommandFileSetArguments, ptr %3, i32 0, i32 1
  call void @_ZNSt7__cxx1112basic_stringIcSt11char_traitsIcESaIcEED1Ev(ptr noundef nonnull align 8 dereferenceable(32) %4) #3
  call void @_ZN25cmInstallCommandArgumentsD2Ev(ptr noundef nonnull align 8 dereferenceable(440) %3) #3
  ret void
}

; Function Attrs: mustprogress nounwind uwtable
define linkonce_odr dso_local void @_ZNSt15__new_allocatorI32cmInstallCommandFileSetArgumentsED2Ev(ptr noundef nonnull align 1 dereferenceable(1) %0) unnamed_addr #5 comdat align 2 {
  %2 = alloca ptr, align 8
  store ptr %0, ptr %2, align 8
  ret void
}

; Function Attrs: mustprogress nounwind uwtable
define linkonce_odr dso_local void @_ZNSt15__new_allocatorI32cmInstallCommandFileSetArgumentsE10deallocateEPS0_m(ptr noundef nonnull align 1 dereferenceable(1) %0, ptr noundef %1, i64 noundef %2) #5 comdat align 2 {
  %4 = alloca ptr, align 8
  %5 = alloca ptr, align 8
  %6 = alloca i64, align 8
  store ptr %0, ptr %4, align 8
  store ptr %1, ptr %5, align 8
  store i64 %2, ptr %6, align 8
  %7 = load ptr, ptr %5, align 8
  call void @_ZdlPv(ptr noundef %7) #17
  ret void
}

; Function Attrs: mustprogress nounwind uwtable
define linkonce_odr dso_local void @_ZSt8_DestroyI32cmInstallCommandFileSetArgumentsEvPT_(ptr noundef %0) #5 comdat {
  %2 = alloca ptr, align 8
  store ptr %0, ptr %2, align 8
  %3 = load ptr, ptr %2, align 8
  call void @_ZN32cmInstallCommandFileSetArgumentsD2Ev(ptr noundef nonnull align 8 dereferenceable(472) %3) #3
  ret void
}

; Function Attrs: mustprogress nounwind uwtable
define linkonce_odr dso_local void @_ZNSaI32cmInstallCommandFileSetArgumentsED2Ev(ptr noundef nonnull align 1 dereferenceable(1) %0) unnamed_addr #5 comdat align 2 {
  %2 = alloca ptr, align 8
  store ptr %0, ptr %2, align 8
  %3 = load ptr, ptr %2, align 8
  call void @_ZNSt15__new_allocatorI32cmInstallCommandFileSetArgumentsED2Ev(ptr noundef nonnull align 1 dereferenceable(1) %3) #3
  ret void
}

; Function Attrs: mustprogress uwtable
define linkonce_odr dso_local void @_ZNSt16allocator_traitsISaI32cmInstallCommandFileSetArgumentsEE10deallocateERS1_PS0_m(ptr noundef nonnull align 1 dereferenceable(1) %0, ptr noundef %1, i64 noundef %2) #6 comdat align 2 {
  %4 = alloca ptr, align 8
  %5 = alloca ptr, align 8
  %6 = alloca i64, align 8
  store ptr %0, ptr %4, align 8
  store ptr %1, ptr %5, align 8
  store i64 %2, ptr %6, align 8
  %7 = load ptr, ptr %4, align 8
  %8 = load ptr, ptr %5, align 8
  %9 = load i64, ptr %6, align 8
  call void @_ZNSt15__new_allocatorI32cmInstallCommandFileSetArgumentsE10deallocateEPS0_m(ptr noundef nonnull align 1 dereferenceable(1) %7, ptr noundef %8, i64 noundef %9)
  ret void
}

; Function Attrs: mustprogress uwtable
define linkonce_odr dso_local void @_ZNSt12_Destroy_auxILb0EE9__destroyIP32cmInstallCommandFileSetArgumentsEEvT_S4_(ptr noundef %0, ptr noundef %1) #6 comdat align 2 {
  %3 = alloca ptr, align 8
  %4 = alloca ptr, align 8
  store ptr %0, ptr %3, align 8
  store ptr %1, ptr %4, align 8
  br label %5

5:                                                ; preds = %11, %2
  %6 = load ptr, ptr %3, align 8
  %7 = load ptr, ptr %4, align 8
  %8 = icmp ne ptr %6, %7
  br i1 %8, label %9, label %14

9:                                                ; preds = %5
  %10 = load ptr, ptr %3, align 8
  call void @_ZSt8_DestroyI32cmInstallCommandFileSetArgumentsEvPT_(ptr noundef %10)
  br label %11

11:                                               ; preds = %9
  %12 = load ptr, ptr %3, align 8
  %13 = getelementptr inbounds %class.cmInstallCommandFileSetArguments, ptr %12, i32 1
  store ptr %13, ptr %3, align 8
  br label %5, !llvm.loop !21

14:                                               ; preds = %5
  ret void
}

; Function Attrs: mustprogress nounwind uwtable
define linkonce_odr dso_local void @_ZNSt12_Vector_baseI32cmInstallCommandFileSetArgumentsSaIS0_EE12_Vector_implD2Ev(ptr noundef nonnull align 8 dereferenceable(24) %0) unnamed_addr #5 comdat align 2 {
  %2 = alloca ptr, align 8
  store ptr %0, ptr %2, align 8
  %3 = load ptr, ptr %2, align 8
  call void @_ZNSaI32cmInstallCommandFileSetArgumentsED2Ev(ptr noundef nonnull align 1 dereferenceable(1) %3) #3
  ret void
}

; Function Attrs: mustprogress uwtable
define linkonce_odr dso_local void @_ZNSt12_Vector_baseI32cmInstallCommandFileSetArgumentsSaIS0_EE13_M_deallocateEPS0_m(ptr noundef nonnull align 8 dereferenceable(24) %0, ptr noundef %1, i64 noundef %2) #6 comdat align 2 {
  %4 = alloca ptr, align 8
  %5 = alloca ptr, align 8
  %6 = alloca i64, align 8
  store ptr %0, ptr %4, align 8
  store ptr %1, ptr %5, align 8
  store i64 %2, ptr %6, align 8
  %7 = load ptr, ptr %4, align 8
  %8 = load ptr, ptr %5, align 8
  %9 = icmp ne ptr %8, null
  br i1 %9, label %10, label %14

10:                                               ; preds = %3
  %11 = getelementptr inbounds %"struct.std::_Vector_base.381", ptr %7, i32 0, i32 0
  %12 = load ptr, ptr %5, align 8
  %13 = load i64, ptr %6, align 8
  call void @_ZNSt16allocator_traitsISaI32cmInstallCommandFileSetArgumentsEE10deallocateERS1_PS0_m(ptr noundef nonnull align 1 dereferenceable(1) %11, ptr noundef %12, i64 noundef %13)
  br label %14

14:                                               ; preds = %10, %3
  ret void
}

; Function Attrs: mustprogress uwtable
define linkonce_odr dso_local void @_ZSt8_DestroyIP32cmInstallCommandFileSetArgumentsEvT_S2_(ptr noundef %0, ptr noundef %1) #6 comdat {
  %3 = alloca ptr, align 8
  %4 = alloca ptr, align 8
  store ptr %0, ptr %3, align 8
  store ptr %1, ptr %4, align 8
  %5 = load ptr, ptr %3, align 8
  %6 = load ptr, ptr %4, align 8
  call void @_ZNSt12_Destroy_auxILb0EE9__destroyIP32cmInstallCommandFileSetArgumentsEEvT_S4_(ptr noundef %5, ptr noundef %6)
  ret void
}

; Function Attrs: noreturn nounwind uwtable
define linkonce_odr hidden void @__clang_call_terminate(ptr noundef %0) #10 comdat {
  %2 = call ptr @__cxa_begin_catch(ptr %0) #3
  call void @_ZSt9terminatev() #15
  unreachable
}

; Function Attrs: mustprogress nounwind uwtable
define linkonce_odr dso_local void @_ZNSt12_Vector_baseI32cmInstallCommandFileSetArgumentsSaIS0_EED2Ev(ptr noundef nonnull align 8 dereferenceable(24) %0) unnamed_addr #5 comdat align 2 personality ptr @__gxx_personality_v0 {
  %2 = alloca ptr, align 8
  store ptr %0, ptr %2, align 8
  %3 = load ptr, ptr %2, align 8
  %4 = getelementptr inbounds %"struct.std::_Vector_base.381", ptr %3, i32 0, i32 0
  %5 = getelementptr inbounds %"struct.std::_Vector_base<cmInstallCommandFileSetArguments, std::allocator<cmInstallCommandFileSetArguments>>::_Vector_impl_data", ptr %4, i32 0, i32 0
  %6 = load ptr, ptr %5, align 8
  %7 = getelementptr inbounds %"struct.std::_Vector_base.381", ptr %3, i32 0, i32 0
  %8 = getelementptr inbounds %"struct.std::_Vector_base<cmInstallCommandFileSetArguments, std::allocator<cmInstallCommandFileSetArguments>>::_Vector_impl_data", ptr %7, i32 0, i32 2
  %9 = load ptr, ptr %8, align 8
  %10 = getelementptr inbounds %"struct.std::_Vector_base.381", ptr %3, i32 0, i32 0
  %11 = getelementptr inbounds %"struct.std::_Vector_base<cmInstallCommandFileSetArguments, std::allocator<cmInstallCommandFileSetArguments>>::_Vector_impl_data", ptr %10, i32 0, i32 0
  %12 = load ptr, ptr %11, align 8
  %13 = ptrtoint ptr %9 to i64
  %14 = ptrtoint ptr %12 to i64
  %15 = sub i64 %13, %14
  %16 = sdiv exact i64 %15, 472
  invoke void @_ZNSt12_Vector_baseI32cmInstallCommandFileSetArgumentsSaIS0_EE13_M_deallocateEPS0_m(ptr noundef nonnull align 8 dereferenceable(24) %3, ptr noundef %6, i64 noundef %16)
          to label %17 unwind label %19

17:                                               ; preds = %1
  %18 = getelementptr inbounds %"struct.std::_Vector_base.381", ptr %3, i32 0, i32 0
  call void @_ZNSt12_Vector_baseI32cmInstallCommandFileSetArgumentsSaIS0_EE12_Vector_implD2Ev(ptr noundef nonnull align 8 dereferenceable(24) %18) #3
  ret void

19:                                               ; preds = %1
  %20 = landingpad { ptr, i32 }
          catch ptr null
  %21 = extractvalue { ptr, i32 } %20, 0
  call void @__clang_call_terminate(ptr %21) #15
  unreachable
}

; Function Attrs: mustprogress uwtable
define linkonce_odr dso_local void @_ZSt8_DestroyIP32cmInstallCommandFileSetArgumentsS0_EvT_S2_RSaIT0_E(ptr noundef %0, ptr noundef %1, ptr noundef nonnull align 1 dereferenceable(1) %2) #6 comdat {
  %4 = alloca ptr, align 8
  %5 = alloca ptr, align 8
  %6 = alloca ptr, align 8
  store ptr %0, ptr %4, align 8
  store ptr %1, ptr %5, align 8
  store ptr %2, ptr %6, align 8
  %7 = load ptr, ptr %4, align 8
  %8 = load ptr, ptr %5, align 8
  call void @_ZSt8_DestroyIP32cmInstallCommandFileSetArgumentsEvT_S2_(ptr noundef %7, ptr noundef %8)
  ret void
}

; Function Attrs: mustprogress nounwind uwtable
define linkonce_odr dso_local noundef nonnull align 1 dereferenceable(1) ptr @_ZNSt12_Vector_baseI32cmInstallCommandFileSetArgumentsSaIS0_EE19_M_get_Tp_allocatorEv(ptr noundef nonnull align 8 dereferenceable(24) %0) #5 comdat align 2 {
  %2 = alloca ptr, align 8
  store ptr %0, ptr %2, align 8
  %3 = load ptr, ptr %2, align 8
  %4 = getelementptr inbounds %"struct.std::_Vector_base.381", ptr %3, i32 0, i32 0
  ret ptr %4
}

; Function Attrs: mustprogress nounwind uwtable
define linkonce_odr dso_local void @_ZNSt6vectorI32cmInstallCommandFileSetArgumentsSaIS0_EED2Ev(ptr noundef nonnull align 8 dereferenceable(24) %0) unnamed_addr #5 comdat align 2 personality ptr @__gxx_personality_v0 {
  %2 = alloca ptr, align 8
  store ptr %0, ptr %2, align 8
  %3 = load ptr, ptr %2, align 8
  %4 = getelementptr inbounds %"struct.std::_Vector_base.381", ptr %3, i32 0, i32 0
  %5 = getelementptr inbounds %"struct.std::_Vector_base<cmInstallCommandFileSetArguments, std::allocator<cmInstallCommandFileSetArguments>>::_Vector_impl_data", ptr %4, i32 0, i32 0
  %6 = load ptr, ptr %5, align 8
  %7 = getelementptr inbounds %"struct.std::_Vector_base.381", ptr %3, i32 0, i32 0
  %8 = getelementptr inbounds %"struct.std::_Vector_base<cmInstallCommandFileSetArguments, std::allocator<cmInstallCommandFileSetArguments>>::_Vector_impl_data", ptr %7, i32 0, i32 1
  %9 = load ptr, ptr %8, align 8
  %10 = call noundef nonnull align 1 dereferenceable(1) ptr @_ZNSt12_Vector_baseI32cmInstallCommandFileSetArgumentsSaIS0_EE19_M_get_Tp_allocatorEv(ptr noundef nonnull align 8 dereferenceable(24) %3) #3
  invoke void @_ZSt8_DestroyIP32cmInstallCommandFileSetArgumentsS0_EvT_S2_RSaIT0_E(ptr noundef %6, ptr noundef %9, ptr noundef nonnull align 1 dereferenceable(1) %10)
          to label %11 unwind label %12

11:                                               ; preds = %1
  call void @_ZNSt12_Vector_baseI32cmInstallCommandFileSetArgumentsSaIS0_EED2Ev(ptr noundef nonnull align 8 dereferenceable(24) %3) #3
  ret void

12:                                               ; preds = %1
  %13 = landingpad { ptr, i32 }
          catch ptr null
  %14 = extractvalue { ptr, i32 } %13, 0
  call void @__clang_call_terminate(ptr %14) #15
  unreachable
}

; Function Attrs: mustprogress nounwind uwtable
define internal void @"_ZZZN12_GLOBAL__N_117HandleTargetsModeERKSt6vectorINSt7__cxx1112basic_stringIcSt11char_traitsIcESaIcEEESaIS6_EER17cmExecutionStatusENK3$_5clEvENUlRKS6_E_D2Ev"(ptr noundef nonnull align 8 dereferenceable(24) %0) unnamed_addr #5 align 2 {
  %2 = alloca ptr, align 8
  store ptr %0, ptr %2, align 8
  %3 = load ptr, ptr %2, align 8
  %4 = getelementptr inbounds %class.anon.501, ptr %3, i32 0, i32 0
  call void @_ZNSt6vectorI32cmInstallCommandFileSetArgumentsSaIS0_EED2Ev(ptr noundef nonnull align 8 dereferenceable(24) %4) #3
  ret void
}